target datalayout = "e-m:e-p270:32:32-p271:32:32-p272:64:64-i64:64-i128:128-f80:128-n8:16:32:64-S128"
target triple = "x86_64-pc-linux-gnu"

%struct.client_io_t = type { i32, i32, i8, i32, i32, i32, ptr, i8, %union.pthread_cond_t, %union.pthread_mutex_t, i32, ptr, ptr, ptr, %union.pthread_mutex_t, ptr, i32, ptr, ptr, ptr, ptr, ptr, ptr, i32, i32, ptr }
%union.pthread_cond_t = type { %struct.__pthread_cond_s }
%struct.__pthread_cond_s = type { %union.__atomic_wide_counter, %union.__atomic_wide_counter, [2 x i32], [2 x i32], i32, i32, [2 x i32] }
%union.__atomic_wide_counter = type { i64 }
%union.pthread_mutex_t = type { %struct.__pthread_mutex_s }
%struct.__pthread_mutex_s = type { i32, i32, i32, i32, i32, i16, i16, %struct.__pthread_internal_list }
%struct.__pthread_internal_list = type { ptr, ptr }
%struct.__sigset_t = type { [16 x i64] }

@.str = private unnamed_addr constant [10 x i8] c"step_io.c\00", align 1
@.str.4 = private unnamed_addr constant [29 x i8] c"%s: pthread_mutex_lock(): %m\00", align 1
@.str.11 = private unnamed_addr constant [31 x i8] c"%s: pthread_mutex_unlock(): %m\00", align 1
@.str.80 = private unnamed_addr constant [20 x i8] c"IO thread pid = %lu\00", align 1
@__func__._io_thr_internal = private unnamed_addr constant [17 x i8] c"_io_thr_internal\00", align 1
@.str.81 = private unnamed_addr constant [39 x i8] c"%s:%d %s: pthread_cond_broadcast(): %m\00", align 1
@.str.82 = private unnamed_addr constant [18 x i8] c"IO thread exiting\00", align 1

; Function Attrs: nounwind uwtable
define internal void @_set_listensocks_nonblocking(ptr noundef %0) #0 {
  %2 = alloca ptr, align 8
  %3 = alloca i32, align 4
  store ptr %0, ptr %2, align 8
  call void @llvm.lifetime.start.p0(i64 4, ptr %3) #9
  store i32 0, ptr %3, align 4
  br label %4

4:                                                ; preds = %18, %1
  %5 = load i32, ptr %3, align 4
  %6 = load ptr, ptr %2, align 8
  %7 = getelementptr inbounds nuw %struct.client_io_t, ptr %6, i32 0, i32 10
  %8 = load i32, ptr %7, align 8
  %9 = icmp slt i32 %5, %8
  br i1 %9, label %10, label %21

10:                                               ; preds = %4
  %11 = load ptr, ptr %2, align 8
  %12 = getelementptr inbounds nuw %struct.client_io_t, ptr %11, i32 0, i32 11
  %13 = load ptr, ptr %12, align 8
  %14 = load i32, ptr %3, align 4
  %15 = sext i32 %14 to i64
  %16 = getelementptr inbounds i32, ptr %13, i64 %15
  %17 = load i32, ptr %16, align 4
  call void @fd_set_nonblocking(i32 noundef %17)
  br label %18

18:                                               ; preds = %10
  %19 = load i32, ptr %3, align 4
  %20 = add nsw i32 %19, 1
  store i32 %20, ptr %3, align 4
  br label %4, !llvm.loop !21

21:                                               ; preds = %4
  call void @llvm.lifetime.end.p0(i64 4, ptr %3) #9
  ret void
}

; Function Attrs: nounwind uwtable
define internal ptr @_io_thr_internal(ptr noundef %0) #0 {
  %2 = alloca ptr, align 8
  %3 = alloca ptr, align 8
  %4 = alloca %struct.__sigset_t, align 8
  %5 = alloca i32, align 4
  %6 = alloca i32, align 4
  %7 = alloca i32, align 4
  store ptr %0, ptr %2, align 8
  call void @llvm.lifetime.start.p0(i64 8, ptr %3) #9
  %8 = load ptr, ptr %2, align 8
  store ptr %8, ptr %3, align 8
  call void @llvm.lifetime.start.p0(i64 128, ptr %4) #9
  br label %9

9:                                                ; preds = %1
  br label %10

10:                                               ; preds = %9
  %11 = call i32 @get_log_level()
  %12 = icmp sge i32 %11, 7
  br i1 %12, label %13, label %16

13:                                               ; preds = %10
  %14 = call i32 @getpid() #9
  %15 = sext i32 %14 to i64
  call void (i32, ptr, ...) @log_var(i32 noundef 7, ptr noundef @.str.80, i64 noundef %15)
  br label %16

16:                                               ; preds = %13, %10
  br label %17

17:                                               ; preds = %16
  br label %18

18:                                               ; preds = %17
  br label %19

19:                                               ; preds = %18
  br label %20

20:                                               ; preds = %19
  %21 = call i32 @sigemptyset(ptr noundef %4) #9
  %22 = call i32 @sigaddset(ptr noundef %4, i32 noundef 1) #9
  %23 = call i32 @pthread_sigmask(i32 noundef 0, ptr noundef %4, ptr noundef null) #9
  %24 = load ptr, ptr %3, align 8
  call void @_set_listensocks_nonblocking(ptr noundef %24)
  %25 = load ptr, ptr %3, align 8
  %26 = getelementptr inbounds nuw %struct.client_io_t, ptr %25, i32 0, i32 13
  %27 = load ptr, ptr %26, align 8
  %28 = call i32 @eio_handle_mainloop(ptr noundef %27)
  br label %29

29:                                               ; preds = %20
  call void @llvm.lifetime.start.p0(i64 4, ptr %5) #9
  %30 = load ptr, ptr %3, align 8
  %31 = getelementptr inbounds nuw %struct.client_io_t, ptr %30, i32 0, i32 9
  %32 = call i32 @pthread_mutex_lock(ptr noundef %31) #9
  store i32 %32, ptr %5, align 4
  %33 = load i32, ptr %5, align 4
  %34 = icmp ne i32 %33, 0
  br i1 %34, label %35, label %38

35:                                               ; preds = %29
  %36 = load i32, ptr %5, align 4
  %37 = call ptr @__errno_location() #10
  store i32 %36, ptr %37, align 4
  call void (ptr, ...) @fatal_abort(ptr noundef @.str.4, ptr noundef @__func__._io_thr_internal) #11
  unreachable

38:                                               ; preds = %29
  call void @llvm.lifetime.end.p0(i64 4, ptr %5) #9
  br label %39

39:                                               ; preds = %38
  br label %40

40:                                               ; preds = %39
  %41 = load ptr, ptr %3, align 8
  %42 = getelementptr inbounds nuw %struct.client_io_t, ptr %41, i32 0, i32 7
  store i8 0, ptr %42, align 8
  br label %43

43:                                               ; preds = %40
  call void @llvm.lifetime.start.p0(i64 4, ptr %6) #9
  %44 = load ptr, ptr %3, align 8
  %45 = getelementptr inbounds nuw %struct.client_io_t, ptr %44, i32 0, i32 8
  %46 = call i32 @pthread_cond_broadcast(ptr noundef %45) #9
  store i32 %46, ptr %6, align 4
  %47 = load i32, ptr %6, align 4
  %48 = icmp ne i32 %47, 0
  br i1 %48, label %49, label %53

49:                                               ; preds = %43
  %50 = load i32, ptr %6, align 4
  %51 = call ptr @__errno_location() #10
  store i32 %50, ptr %51, align 4
  %52 = call i32 (ptr, ...) @error(ptr noundef @.str.81, ptr noundef @.str, i32 noundef 817, ptr noundef @__func__._io_thr_internal)
  br label %53

53:                                               ; preds = %49, %43
  call void @llvm.lifetime.end.p0(i64 4, ptr %6) #9
  br label %54

54:                                               ; preds = %53
  br label %55

55:                                               ; preds = %54
  br label %56

56:                                               ; preds = %55
  call void @llvm.lifetime.start.p0(i64 4, ptr %7) #9
  %57 = load ptr, ptr %3, align 8
  %58 = getelementptr inbounds nuw %struct.client_io_t, ptr %57, i32 0, i32 9
  %59 = call i32 @pthread_mutex_unlock(ptr noundef %58) #9
  store i32 %59, ptr %7, align 4
  %60 = load i32, ptr %7, align 4
  %61 = icmp ne i32 %60, 0
  br i1 %61, label %62, label %65

62:                                               ; preds = %56
  %63 = load i32, ptr %7, align 4
  %64 = call ptr @__errno_location() #10
  store i32 %63, ptr %64, align 4
  call void (ptr, ...) @fatal_abort(ptr noundef @.str.11, ptr noundef @__func__._io_thr_internal) #11
  unreachable

65:                                               ; preds = %56
  call void @llvm.lifetime.end.p0(i64 4, ptr %7) #9
  br label %66

66:                                               ; preds = %65
  br label %67

67:                                               ; preds = %66
  br label %68

68:                                               ; preds = %67
  br label %69

69:                                               ; preds = %68
  %70 = call i32 @get_log_level()
  %71 = icmp sge i32 %70, 5
  br i1 %71, label %72, label %73

72:                                               ; preds = %69
  call void (i32, ptr, ...) @log_var(i32 noundef 5, ptr noundef @.str.82)
  br label %73

73:                                               ; preds = %72, %69
  br label %74

74:                                               ; preds = %73
  br label %75

75:                                               ; preds = %74
  br label %76

76:                                               ; preds = %75
  br label %77

77:                                               ; preds = %76
  call void @llvm.lifetime.end.p0(i64 128, ptr %4) #9
  call void @llvm.lifetime.end.p0(i64 8, ptr %3) #9
  ret ptr null
}