; Function Attrs: nounwind uwtable
define internal noalias noundef ptr @_io_thr_internal(ptr noundef %0) #0 {
  %2 = alloca %struct.__sigset_t, align 8
  call void @llvm.lifetime.start.p0(i64 128, ptr nonnull %2) #10
  %3 = tail call i32 @get_log_level() #10
  %4 = icmp sgt i32 %3, 6
  br i1 %4, label %5, label %8

5:                                                ; preds = %1
  %6 = tail call i32 @getpid() #10
  %7 = sext i32 %6 to i64
  tail call void (i32, ptr, ...) @log_var(i32 noundef 7, ptr noundef nonnull @.str.80, i64 noundef %7) #10
  br label %8

8:                                                ; preds = %5, %1
  %9 = call i32 @sigemptyset(ptr noundef nonnull %2) #10
  %10 = call i32 @sigaddset(ptr noundef nonnull %2, i32 noundef 1) #10
  %11 = call i32 @pthread_sigmask(i32 noundef 0, ptr noundef nonnull %2, ptr noundef null) #10
  %12 = getelementptr inbounds nuw i8, ptr %0, i64 128
  %13 = load i32, ptr %12, align 8
  %14 = icmp sgt i32 %13, 0
  br i1 %14, label %.lr.ph.i, label %_set_listensocks_nonblocking.exit

.lr.ph.i:                                         ; preds = %8
  %15 = getelementptr inbounds nuw i8, ptr %0, i64 136
  br label %16

16:                                               ; preds = %16, %.lr.ph.i
  %indvars.iv.i = phi i64 [ 0, %.lr.ph.i ], [ %indvars.iv.next.i, %16 ]
  %17 = load ptr, ptr %15, align 8
  %18 = getelementptr inbounds nuw i32, ptr %17, i64 %indvars.iv.i
  %19 = load i32, ptr %18, align 4
  call void @fd_set_nonblocking(i32 noundef %19) #10
  %indvars.iv.next.i = add nuw nsw i64 %indvars.iv.i, 1
  %20 = load i32, ptr %12, align 8
  %21 = sext i32 %20 to i64
  %22 = icmp slt i64 %indvars.iv.next.i, %21
  br i1 %22, label %16, label %_set_listensocks_nonblocking.exit, !llvm.loop !18

_set_listensocks_nonblocking.exit:                ; preds = %16, %8
  %23 = getelementptr inbounds nuw i8, ptr %0, i64 152
  %24 = load ptr, ptr %23, align 8
  %25 = call i32 @eio_handle_mainloop(ptr noundef %24) #10
  %26 = getelementptr inbounds nuw i8, ptr %0, i64 88
  %27 = call i32 @pthread_mutex_lock(ptr noundef nonnull %26) #10
  %.not = icmp eq i32 %27, 0
  br i1 %.not, label %30, label %28

28:                                               ; preds = %_set_listensocks_nonblocking.exit
  %29 = tail call ptr @__errno_location() #11
  store i32 %27, ptr %29, align 4
  call void (ptr, ...) @fatal_abort(ptr noundef nonnull @.str.4, ptr noundef nonnull @__func__._io_thr_internal) #12
  unreachable

30:                                               ; preds = %_set_listensocks_nonblocking.exit
  %31 = getelementptr inbounds nuw i8, ptr %0, i64 32
  store i8 0, ptr %31, align 8
  %32 = getelementptr inbounds nuw i8, ptr %0, i64 40
  %33 = call i32 @pthread_cond_broadcast(ptr noundef nonnull %32) #10
  %.not14 = icmp eq i32 %33, 0
  br i1 %.not14, label %37, label %34

34:                                               ; preds = %30
  %35 = tail call ptr @__errno_location() #11
  store i32 %33, ptr %35, align 4
  %36 = call i32 (ptr, ...) @error(ptr noundef nonnull @.str.81, ptr noundef nonnull @.str, i32 noundef 817, ptr noundef nonnull @__func__._io_thr_internal) #10
  br label %37

37:                                               ; preds = %34, %30
  %38 = call i32 @pthread_mutex_unlock(ptr noundef nonnull %26) #10
  %.not15 = icmp eq i32 %38, 0
  br i1 %.not15, label %41, label %39

39:                                               ; preds = %37
  %40 = tail call ptr @__errno_location() #11
  store i32 %38, ptr %40, align 4
  call void (ptr, ...) @fatal_abort(ptr noundef nonnull @.str.11, ptr noundef nonnull @__func__._io_thr_internal) #12
  unreachable

41:                                               ; preds = %37
  %42 = call i32 @get_log_level() #10
  %43 = icmp sgt i32 %42, 4
  br i1 %43, label %44, label %45

44:                                               ; preds = %41
  call void (i32, ptr, ...) @log_var(i32 noundef 5, ptr noundef nonnull @.str.82) #10
  br label %45

45:                                               ; preds = %44, %41
  call void @llvm.lifetime.end.p0(i64 128, ptr nonnull %2) #10
  ret ptr null
}